; Function Attrs: mustprogress nofree norecurse nosync nounwind willreturn memory(read, inaccessiblemem: none) uwtable
define internal noundef zeroext i16 @_ZL20UnicodeString_charAtiPv(i32 noundef %offset, ptr nocapture noundef readonly %context) #15 {
entry:
  %fUnion.i.i.i.i = getelementptr inbounds i8, ptr %context, i64 8
  %0 = load i16, ptr %fUnion.i.i.i.i, align 8
  %cmp.i.i.i.i = icmp slt i16 %0, 0
  %1 = ashr i16 %0, 5
  %shr.i.i.i.i = sext i16 %1 to i32
  %fLength.i.i.i = getelementptr inbounds i8, ptr %context, i64 12
  %2 = load i32, ptr %fLength.i.i.i, align 4
  %cond.i.i.i = select i1 %cmp.i.i.i.i, i32 %2, i32 %shr.i.i.i.i
  %cmp.i.i = icmp ugt i32 %cond.i.i.i, %offset
  br i1 %cmp.i.i, label %if.then.i.i, label %_ZNK6icu_7513UnicodeString6charAtEi.exit

if.then.i.i:                                      ; preds = %entry
  %3 = and i16 %0, 2
  %tobool.not.i.i.i = icmp eq i16 %3, 0
  %fBuffer.i.i.i = getelementptr inbounds i8, ptr %context, i64 10
  %fArray.i.i.i = getelementptr inbounds i8, ptr %context, i64 24
  %4 = load ptr, ptr %fArray.i.i.i, align 8
  %cond.i2.i.i = select i1 %tobool.not.i.i.i, ptr %4, ptr %fBuffer.i.i.i
  %idxprom.i.i = sext i32 %offset to i64
  %arrayidx.i.i = getelementptr inbounds i16, ptr %cond.i2.i.i, i64 %idxprom.i.i
  %5 = load i16, ptr %arrayidx.i.i, align 2
  br label %_ZNK6icu_7513UnicodeString6charAtEi.exit

_ZNK6icu_7513UnicodeString6charAtEi.exit:         ; preds = %entry, %if.then.i.i
  %retval.0.i.i = phi i16 [ %5, %if.then.i.i ], [ -1, %entry ]
  ret i16 %retval.0.i.i
}